Certificate:
    Data:
        Version: 3 (0x2)
        Serial Number: 4096 (0x1000)
        Signature Algorithm: sha256WithRSAEncryption
        Issuer: C=BD, ST=Sylhet, L=sust, O=sust, OU=sust, CN=example1.com/emailAddress=jakir@gmail.com
        Validity
            Not Before: Aug  6 07:21:26 2023 GMT
            Not After : Aug  5 07:21:26 2024 GMT
        Subject: C=BD, ST=Sylhet, O=sust, OU=sust, CN=www.example1.com/emailAddress=jakir@gmail.com
        Subject Public Key Info:
            Public Key Algorithm: rsaEncryption
                Public-Key: (2048 bit)
                Modulus:
                    00:a5:d6:b2:ff:17:99:33:bd:d1:78:94:2e:57:e8:
                    87:d6:b8:38:a9:f3:61:f8:b6:82:6f:dd:fa:a6:17:
                    4d:8f:6e:9a:1f:fe:7e:00:64:0a:e0:fc:90:a8:4d:
                    3c:17:fe:f0:78:00:fe:e3:89:1e:81:b2:4a:3c:a2:
                    1b:5e:26:a7:92:51:7b:ae:58:5a:91:ed:aa:3d:69:
                    a1:1b:0d:19:84:a8:b3:31:ae:ff:72:62:3b:69:8a:
                    a5:0b:a4:af:4b:ae:7e:bf:d6:1c:51:fe:16:5a:f8:
                    a7:20:94:88:b9:88:3f:46:f5:5b:40:41:8c:9a:67:
                    aa:65:64:78:2d:4e:66:13:b1:cb:56:84:34:3e:18:
                    7a:e7:63:f9:7f:d3:bc:1f:f8:38:e5:e8:0e:6b:24:
                    f7:cc:90:26:e4:eb:f5:69:09:66:86:b3:0c:fb:40:
                    ba:8c:70:de:db:63:74:10:d9:2a:13:da:70:79:10:
                    99:87:ab:1e:37:bc:80:f4:99:b7:38:39:af:2a:a7:
                    82:ae:6c:8c:bd:03:7a:fb:9d:6f:df:f4:4f:a2:c0:
                    f0:f7:9a:0b:05:d5:1a:75:65:06:c5:ce:20:dc:85:
                    a3:e7:d6:7d:e3:c0:80:48:cd:64:ff:fc:df:63:09:
                    5b:bc:f8:89:ee:43:a3:61:c5:34:29:8d:33:60:58:
                    69:17
                Exponent: 65537 (0x10001)
        X509v3 extensions:
            X509v3 Basic Constraints: 
                CA:FALSE
            X509v3 Subject Key Identifier: 
                DC:24:88:64:DB:22:CA:82:6D:7A:64:9B:86:E3:AB:0B:2E:99:AA:2C
            X509v3 Authority Key Identifier: 
                3C:39:BF:F8:42:9F:44:49:03:80:5F:FF:DA:4E:1E:CA:8C:8A:D9:11
    Signature Algorithm: sha256WithRSAEncryption
    Signature Value:
        88:c5:4d:3f:ec:0d:58:04:c5:a8:10:b0:48:5b:be:6e:26:3e:
        50:7e:00:12:88:7e:45:5a:42:0a:d6:65:b7:6f:11:97:9c:0f:
        b4:cd:f9:b1:1b:f4:c9:48:59:91:57:ec:1b:17:da:fe:ea:7d:
        9b:09:91:e4:55:fd:11:62:c1:ad:6a:dc:ff:a7:37:3a:ca:a7:
        96:49:3d:05:c9:43:88:1d:11:e2:5f:65:fd:65:b6:34:0a:66:
        e5:16:98:fb:2f:ed:2d:57:de:5b:e7:e3:65:f0:24:28:35:bc:
        c1:eb:59:4b:dc:17:3a:a4:67:1f:cd:5f:e7:81:84:b3:df:ff:
        13:45:20:88:f1:0f:17:e8:97:d5:6e:c9:35:a4:51:de:03:18:
        60:0e:1d:66:86:a5:8d:c6:e2:ab:bc:63:eb:a4:89:ce:0c:59:
        d4:92:b8:d8:90:a7:73:9a:11:c3:ac:b0:15:c2:66:10:53:38:
        82:b3:46:3d:24:30:19:c5:3b:5a:cd:21:0f:0c:b5:c6:22:ed:
        56:92:f9:b0:a0:ec:b7:d3:c7:71:94:a2:d3:80:f1:2d:1b:6c:
        de:76:aa:1d:5f:28:f2:d1:bb:23:9e:e6:cd:3b:39:30:6a:d0:
        f2:e0:01:77:f6:fb:2a:ee:9b:1e:d5:93:78:c9:84:64:81:75:
        b7:8b:11:23
-----BEGIN CERTIFICATE-----
MIIDwzCCAqugAwIBAgICEAAwDQYJKoZIhvcNAQELBQAwgYIxCzAJBgNVBAYTAkJE
MQ8wDQYDVQQIDAZTeWxoZXQxDTALBgNVBAcMBHN1c3QxDTALBgNVBAoMBHN1c3Qx
DTALBgNVBAsMBHN1c3QxFTATBgNVBAMMDGV4YW1wbGUxLmNvbTEeMBwGCSqGSIb3
DQEJARYPamFraXJAZ21haWwuY29tMB4XDTIzMDgwNjA3MjEyNloXDTI0MDgwNTA3
MjEyNlowdzELMAkGA1UEBhMCQkQxDzANBgNVBAgMBlN5bGhldDENMAsGA1UECgwE
c3VzdDENMAsGA1UECwwEc3VzdDEZMBcGA1UEAwwQd3d3LmV4YW1wbGUxLmNvbTEe
MBwGCSqGSIb3DQEJARYPamFraXJAZ21haWwuY29tMIIBIjANBgkqhkiG9w0BAQEF
AAOCAQ8AMIIBCgKCAQEApday/xeZM73ReJQuV+iH1rg4qfNh+LaCb936phdNj26a
H/5+AGQK4PyQqE08F/7weAD+44kegbJKPKIbXianklF7rlhake2qPWmhGw0ZhKiz
Ma7/cmI7aYqlC6SvS65+v9YcUf4WWvinIJSIuYg/RvVbQEGMmmeqZWR4LU5mE7HL
VoQ0Phh652P5f9O8H/g45egOayT3zJAm5Ov1aQlmhrMM+0C6jHDe22N0ENkqE9pw
eRCZh6seN7yA9Jm3ODmvKqeCrmyMvQN6+51v3/RPosDw95oLBdUadWUGxc4g3IWj
59Z948CASM1k//zfYwlbvPiJ7kOjYcU0KY0zYFhpFwIDAQABo00wSzAJBgNVHRME
AjAAMB0GA1UdDgQWBBTcJIhk2yLKgm16ZJuG46sLLpmqLDAfBgNVHSMEGDAWgBQ8
Ob/4Qp9ESQOAX//aTh7KjIrZETANBgkqhkiG9w0BAQsFAAOCAQEAiMVNP+wNWATF
qBCwSFu+biY+UH4AEoh+RVpCCtZlt28Rl5wPtM35sRv0yUhZkVfsGxfa/up9mwmR
5FX9EWLBrWrc/6c3Osqnlkk9BclDiB0R4l9l/WW2NApm5RaY+y/tLVfeW+fjZfAk
KDW8wetZS9wXOqRnH81f54GEs9//E0UgiPEPF+iX1W7JNaRR3gMYYA4dZoaljcbi
q7xj66SJzgxZ1JK42JCnc5oRw6ywFcJmEFM4grNGPSQwGcU7Ws0hDwy1xiLtVpL5
sKDst9PHcZSi04DxLRts3naqHV8o8tG7I57mzTs5MGrQ8uABd/b7Ku6bHtWTeMmE
ZIF1t4sRIw==
-----END CERTIFICATE-----
